target datalayout = "e-m:e-p270:32:32-p271:32:32-p272:64:64-i64:64-i128:128-f80:128-n8:16:32:64-S128"
target triple = "x86_64-pc-linux-gnu"

; Function Attrs: mustprogress nounwind uwtable
define dso_local noundef float @_ZN17btSoftBodyHelpers11CalculateUVEiiiii(i32 noundef %0, i32 noundef %1, i32 noundef %2, i32 noundef %3, i32 noundef %4) #1 align 2 {
  %6 = alloca i32, align 4
  %7 = alloca i32, align 4
  %8 = alloca i32, align 4
  %9 = alloca i32, align 4
  %10 = alloca i32, align 4
  %11 = alloca float, align 4
  store i32 %0, ptr %6, align 4, !tbaa !9
  store i32 %1, ptr %7, align 4, !tbaa !9
  store i32 %2, ptr %8, align 4, !tbaa !9
  store i32 %3, ptr %9, align 4, !tbaa !9
  store i32 %4, ptr %10, align 4, !tbaa !9
  call void @llvm.lifetime.start.p0(i64 4, ptr %11) #6
  store float 0.000000e+00, ptr %11, align 4, !tbaa !12
  %12 = load i32, ptr %10, align 4, !tbaa !9
  %13 = icmp eq i32 %12, 0
  br i1 %13, label %14, label %22

14:                                               ; preds = %5
  %15 = load i32, ptr %6, align 4, !tbaa !9
  %16 = sub nsw i32 %15, 1
  %17 = sitofp i32 %16 to float
  %18 = fdiv float 1.000000e+00, %17
  %19 = load i32, ptr %8, align 4, !tbaa !9
  %20 = sitofp i32 %19 to float
  %21 = fmul float %18, %20
  store float %21, ptr %11, align 4, !tbaa !12
  br label %66

22:                                               ; preds = %5
  %23 = load i32, ptr %10, align 4, !tbaa !9
  %24 = icmp eq i32 %23, 1
  br i1 %24, label %25, label %36

25:                                               ; preds = %22
  %26 = load i32, ptr %7, align 4, !tbaa !9
  %27 = sub nsw i32 %26, 1
  %28 = sitofp i32 %27 to float
  %29 = fdiv float 1.000000e+00, %28
  %30 = load i32, ptr %7, align 4, !tbaa !9
  %31 = sub nsw i32 %30, 1
  %32 = load i32, ptr %9, align 4, !tbaa !9
  %33 = sub nsw i32 %31, %32
  %34 = sitofp i32 %33 to float
  %35 = fmul float %29, %34
  store float %35, ptr %11, align 4, !tbaa !12
  br label %65

36:                                               ; preds = %22
  %37 = load i32, ptr %10, align 4, !tbaa !9
  %38 = icmp eq i32 %37, 2
  br i1 %38, label %39, label %51

39:                                               ; preds = %36
  %40 = load i32, ptr %7, align 4, !tbaa !9
  %41 = sub nsw i32 %40, 1
  %42 = sitofp i32 %41 to float
  %43 = fdiv float 1.000000e+00, %42
  %44 = load i32, ptr %7, align 4, !tbaa !9
  %45 = sub nsw i32 %44, 1
  %46 = load i32, ptr %9, align 4, !tbaa !9
  %47 = sub nsw i32 %45, %46
  %48 = sub nsw i32 %47, 1
  %49 = sitofp i32 %48 to float
  %50 = fmul float %43, %49
  store float %50, ptr %11, align 4, !tbaa !12
  br label %64

51:                                               ; preds = %36
  %52 = load i32, ptr %10, align 4, !tbaa !9
  %53 = icmp eq i32 %52, 3
  br i1 %53, label %54, label %63

54:                                               ; preds = %51
  %55 = load i32, ptr %6, align 4, !tbaa !9
  %56 = sub nsw i32 %55, 1
  %57 = sitofp i32 %56 to float
  %58 = fdiv float 1.000000e+00, %57
  %59 = load i32, ptr %8, align 4, !tbaa !9
  %60 = add nsw i32 %59, 1
  %61 = sitofp i32 %60 to float
  %62 = fmul float %58, %61
  store float %62, ptr %11, align 4, !tbaa !12
  br label %63

63:                                               ; preds = %54, %51
  br label %64

64:                                               ; preds = %63, %39
  br label %65

65:                                               ; preds = %64, %25
  br label %66

66:                                               ; preds = %65, %14
  %67 = load float, ptr %11, align 4, !tbaa !12
  call void @llvm.lifetime.end.p0(i64 4, ptr %11) #6
  ret float %67
}