; Function Attrs: mustprogress nofree norecurse nosync nounwind willreturn memory(none) uwtable
define dso_local noundef float @_ZN17btSoftBodyHelpers11CalculateUVEiiiii(i32 noundef %0, i32 noundef %1, i32 noundef %2, i32 noundef %3, i32 noundef %4) local_unnamed_addr #15 align 2 {
  switch i32 %4, label %34 [
    i32 0, label %6
    i32 1, label %12
    i32 2, label %19
    i32 3, label %27
  ]

6:                                                ; preds = %5
  %7 = add nsw i32 %0, -1
  %8 = sitofp i32 %7 to float
  %9 = fdiv float 1.000000e+00, %8
  %10 = sitofp i32 %2 to float
  %11 = fmul float %9, %10
  br label %34

12:                                               ; preds = %5
  %13 = add nsw i32 %1, -1
  %14 = sitofp i32 %13 to float
  %15 = fdiv float 1.000000e+00, %14
  %16 = sub nsw i32 %13, %3
  %17 = sitofp i32 %16 to float
  %18 = fmul float %15, %17
  br label %34

19:                                               ; preds = %5
  %20 = add nsw i32 %1, -1
  %21 = sitofp i32 %20 to float
  %22 = fdiv float 1.000000e+00, %21
  %23 = xor i32 %3, -1
  %24 = add i32 %20, %23
  %25 = sitofp i32 %24 to float
  %26 = fmul float %22, %25
  br label %34

27:                                               ; preds = %5
  %28 = add nsw i32 %0, -1
  %29 = sitofp i32 %28 to float
  %30 = fdiv float 1.000000e+00, %29
  %31 = add nsw i32 %2, 1
  %32 = sitofp i32 %31 to float
  %33 = fmul float %30, %32
  br label %34

34:                                               ; preds = %5, %12, %27, %19, %6
  %.0 = phi float [ %11, %6 ], [ %18, %12 ], [ %26, %19 ], [ %33, %27 ], [ 0.000000e+00, %5 ]
  ret float %.0
}